target datalayout = "e-m:e-p270:32:32-p271:32:32-p272:64:64-i64:64-i128:128-f80:128-n8:16:32:64-S128"
target triple = "x86_64-pc-linux-gnu"

; Function Attrs: mustprogress nounwind uwtable
define hidden noundef zeroext i1 @_Z12isRepetitiveRKNSt7__cxx1112basic_stringIcSt11char_traitsIcESaIcEEE(ptr noundef nonnull align 8 dereferenceable(32) %0) #5 {
  %2 = alloca i1, align 1
  %3 = alloca ptr, align 8
  %4 = alloca i32, align 4
  %5 = alloca i32, align 4
  store ptr %0, ptr %3, align 8
  store i32 0, ptr %4, align 4
  store i32 0, ptr %5, align 4
  br label %6

6:                                                ; preds = %40, %1
  %7 = load i32, ptr %5, align 4
  %8 = load ptr, ptr %3, align 8
  %9 = call noundef i64 @_ZNKSt7__cxx1112basic_stringIcSt11char_traitsIcESaIcEE4sizeEv(ptr noundef nonnull align 8 dereferenceable(32) %8) #3
  %10 = trunc i64 %9 to i32
  %11 = icmp slt i32 %7, %10
  br i1 %11, label %12, label %43

12:                                               ; preds = %6
  %13 = load ptr, ptr %3, align 8
  %14 = load i32, ptr %5, align 4
  %15 = sext i32 %14 to i64
  %16 = call noundef nonnull align 1 dereferenceable(1) ptr @_ZNKSt7__cxx1112basic_stringIcSt11char_traitsIcESaIcEEixEm(ptr noundef nonnull align 8 dereferenceable(32) %13, i64 noundef %15) #3
  %17 = load i8, ptr %16, align 1
  %18 = sext i8 %17 to i32
  %19 = icmp eq i32 %18, 105
  br i1 %19, label %36, label %20

20:                                               ; preds = %12
  %21 = load ptr, ptr %3, align 8
  %22 = load i32, ptr %5, align 4
  %23 = sext i32 %22 to i64
  %24 = call noundef nonnull align 1 dereferenceable(1) ptr @_ZNKSt7__cxx1112basic_stringIcSt11char_traitsIcESaIcEEixEm(ptr noundef nonnull align 8 dereferenceable(32) %21, i64 noundef %23) #3
  %25 = load i8, ptr %24, align 1
  %26 = sext i8 %25 to i32
  %27 = icmp eq i32 %26, 108
  br i1 %27, label %36, label %28

28:                                               ; preds = %20
  %29 = load ptr, ptr %3, align 8
  %30 = load i32, ptr %5, align 4
  %31 = sext i32 %30 to i64
  %32 = call noundef nonnull align 1 dereferenceable(1) ptr @_ZNKSt7__cxx1112basic_stringIcSt11char_traitsIcESaIcEEixEm(ptr noundef nonnull align 8 dereferenceable(32) %29, i64 noundef %31) #3
  %33 = load i8, ptr %32, align 1
  %34 = sext i8 %33 to i32
  %35 = icmp eq i32 %34, 73
  br i1 %35, label %36, label %39

36:                                               ; preds = %28, %20, %12
  %37 = load i32, ptr %4, align 4
  %38 = add nsw i32 %37, 1
  store i32 %38, ptr %4, align 4
  br label %39

39:                                               ; preds = %36, %28
  br label %40

40:                                               ; preds = %39
  %41 = load i32, ptr %5, align 4
  %42 = add nsw i32 %41, 1
  store i32 %42, ptr %5, align 4
  br label %6, !llvm.loop !10

43:                                               ; preds = %6
  %44 = load i32, ptr %4, align 4
  %45 = load ptr, ptr %3, align 8
  %46 = call noundef i64 @_ZNKSt7__cxx1112basic_stringIcSt11char_traitsIcESaIcEE4sizeEv(ptr noundef nonnull align 8 dereferenceable(32) %45) #3
  %47 = trunc i64 %46 to i32
  %48 = add nsw i32 %47, 1
  %49 = sdiv i32 %48, 2
  %50 = icmp sgt i32 %44, %49
  br i1 %50, label %51, label %52

51:                                               ; preds = %43
  store i1 true, ptr %2, align 1
  br label %53

52:                                               ; preds = %43
  store i1 false, ptr %2, align 1
  br label %53

53:                                               ; preds = %52, %51
  %54 = load i1, ptr %2, align 1
  ret i1 %54
}