; Function Attrs: mustprogress nounwind uwtable
define hidden noundef zeroext i1 @_Z12isRepetitiveRKNSt7__cxx1112basic_stringIcSt11char_traitsIcESaIcEEE(ptr noundef nonnull align 8 dereferenceable(32) %0) local_unnamed_addr #5 {
  %2 = tail call noundef i64 @_ZNKSt7__cxx1112basic_stringIcSt11char_traitsIcESaIcEE4sizeEv(ptr noundef nonnull align 8 dereferenceable(32) %0) #18
  %3 = trunc i64 %2 to i32
  %4 = icmp sgt i32 %3, 0
  br i1 %4, label %.lr.ph, label %._crit_edge

.lr.ph:                                           ; preds = %1, %18
  %indvars.iv = phi i64 [ %indvars.iv.next, %18 ], [ 0, %1 ]
  %.01214 = phi i32 [ %.1, %18 ], [ 0, %1 ]
  %5 = tail call noundef nonnull align 1 dereferenceable(1) ptr @_ZNKSt7__cxx1112basic_stringIcSt11char_traitsIcESaIcEEixEm(ptr noundef nonnull align 8 dereferenceable(32) %0, i64 noundef %indvars.iv) #18
  %6 = load i8, ptr %5, align 1
  %7 = icmp eq i8 %6, 105
  br i1 %7, label %16, label %8

8:                                                ; preds = %.lr.ph
  %9 = tail call noundef nonnull align 1 dereferenceable(1) ptr @_ZNKSt7__cxx1112basic_stringIcSt11char_traitsIcESaIcEEixEm(ptr noundef nonnull align 8 dereferenceable(32) %0, i64 noundef %indvars.iv) #18
  %10 = load i8, ptr %9, align 1
  %11 = icmp eq i8 %10, 108
  br i1 %11, label %16, label %12

12:                                               ; preds = %8
  %13 = tail call noundef nonnull align 1 dereferenceable(1) ptr @_ZNKSt7__cxx1112basic_stringIcSt11char_traitsIcESaIcEEixEm(ptr noundef nonnull align 8 dereferenceable(32) %0, i64 noundef %indvars.iv) #18
  %14 = load i8, ptr %13, align 1
  %15 = icmp eq i8 %14, 73
  br i1 %15, label %16, label %18

16:                                               ; preds = %12, %8, %.lr.ph
  %17 = add nsw i32 %.01214, 1
  br label %18

18:                                               ; preds = %12, %16
  %.1 = phi i32 [ %17, %16 ], [ %.01214, %12 ]
  %indvars.iv.next = add nuw nsw i64 %indvars.iv, 1
  %19 = tail call noundef i64 @_ZNKSt7__cxx1112basic_stringIcSt11char_traitsIcESaIcEE4sizeEv(ptr noundef nonnull align 8 dereferenceable(32) %0) #18
  %sext = shl i64 %19, 32
  %20 = ashr exact i64 %sext, 32
  %21 = icmp slt i64 %indvars.iv.next, %20
  br i1 %21, label %.lr.ph, label %._crit_edge, !llvm.loop !11

._crit_edge:                                      ; preds = %18, %1
  %.012.lcssa = phi i32 [ 0, %1 ], [ %.1, %18 ]
  %22 = tail call noundef i64 @_ZNKSt7__cxx1112basic_stringIcSt11char_traitsIcESaIcEE4sizeEv(ptr noundef nonnull align 8 dereferenceable(32) %0) #18
  %23 = trunc i64 %22 to i32
  %24 = add nsw i32 %23, 1
  %25 = sdiv i32 %24, 2
  %26 = icmp sgt i32 %.012.lcssa, %25
  ret i1 %26
}